target datalayout = "e-m:e-p270:32:32-p271:32:32-p272:64:64-i64:64-i128:128-f80:128-n8:16:32:64-S128"
target triple = "x86_64-unknown-linux-gnu"

%struct.BlockLimits = type { i32, i64, i32, i64, i32, i32, i32, i64, i32, i64, i64, i32, i8, i32, i32, i32, i32, i32, i32, i32 }
%struct.BlockDriverState = type { i32, i8, i8, i8, i8, i8, ptr, ptr, ptr, %struct.anon.1, i8, [4096 x i8], [4096 x i8], [4096 x i8], [16 x i8], ptr, [4096 x i8], %struct.BlockLimits, i32, i32, i32, i32, [32 x i8], %union.anon, %union.anon.2, %union.anon.3, i32, [16 x %struct.anon.4], ptr, %struct.anon.5, ptr, ptr, %struct.anon.6, ptr, ptr, i32, ptr, i64, i64, %struct.QemuMutex, %struct.anon.7, %struct.Stat64, i32, i32, i32, i32, i32, i32, %struct.QemuMutex, %struct.anon.8, %struct.CoQueue, i8, i32, i8, %struct.CoMutex, ptr, ptr }
%struct.anon.1 = type { ptr }
%union.anon = type { %struct.QTailQLink }
%struct.QTailQLink = type { ptr, ptr }
%union.anon.2 = type { %struct.QTailQLink }
%union.anon.3 = type { %struct.QTailQLink }
%struct.anon.4 = type { ptr }
%struct.anon.5 = type { ptr }
%struct.anon.6 = type { ptr }
%struct.anon.7 = type { ptr }
%struct.Stat64 = type { i64 }
%struct.QemuMutex = type { %union.pthread_mutex_t, i8 }
%union.pthread_mutex_t = type { %struct.__pthread_mutex_s }
%struct.__pthread_mutex_s = type { i32, i32, i32, i32, i32, i16, i16, %struct.__pthread_internal_list }
%struct.__pthread_internal_list = type { ptr, ptr }
%struct.anon.8 = type { ptr }
%struct.CoQueue = type { %struct.anon.9 }
%struct.anon.9 = type { ptr, ptr }
%struct.CoMutex = type { i32, ptr, %struct.anon.10, %struct.anon.10, i32, i32, ptr }
%struct.anon.10 = type { ptr }

@.str.1 = private unnamed_addr constant [19 x i8] c"../qemu/block/io.c\00", align 1
@.str.7 = private unnamed_addr constant [9 x i8] c"old >= 1\00", align 1
@__PRETTY_FUNCTION__.bdrv_disable_copy_on_read = private unnamed_addr constant [51 x i8] c"void bdrv_disable_copy_on_read(BlockDriverState *)\00", align 1

; Function Attrs: nounwind sspstrong uwtable
define dso_local void @bdrv_disable_copy_on_read(ptr noundef %bs) #0 {
entry:
  %bs.addr = alloca ptr, align 8
  %old = alloca i32, align 4
  %.atomictmp = alloca i32, align 4
  %atomic-temp = alloca i32, align 4
  store ptr %bs, ptr %bs.addr, align 8
  %0 = load ptr, ptr %bs.addr, align 8
  %copy_on_read = getelementptr inbounds %struct.BlockDriverState, ptr %0, i32 0, i32 42
  store i32 1, ptr %.atomictmp, align 4
  %1 = load i32, ptr %.atomictmp, align 4
  %2 = atomicrmw sub ptr %copy_on_read, i32 %1 seq_cst, align 8
  store i32 %2, ptr %atomic-temp, align 4
  %3 = load i32, ptr %atomic-temp, align 4
  store i32 %3, ptr %old, align 4
  br label %do.body

do.body:                                          ; preds = %entry
  br label %do.end

do.end:                                           ; preds = %do.body
  %4 = load i32, ptr %old, align 4
  %cmp = icmp sge i32 %4, 1
  br i1 %cmp, label %if.then, label %if.else

if.then:                                          ; preds = %do.end
  br label %if.end

if.else:                                          ; preds = %do.end
  call void @__assert_fail(ptr noundef @.str.7, ptr noundef @.str.1, i32 noundef 248, ptr noundef @__PRETTY_FUNCTION__.bdrv_disable_copy_on_read) #10
  unreachable

if.end:                                           ; preds = %if.then
  ret void
}