; Function Attrs: nounwind sspstrong uwtable
define dso_local void @bdrv_disable_copy_on_read(ptr noundef captures(none) %bs) local_unnamed_addr #0 {
entry:
  %copy_on_read = getelementptr inbounds nuw i8, ptr %bs, i64 16968
  %0 = atomicrmw sub ptr %copy_on_read, i32 1 seq_cst, align 8
  %cmp = icmp sgt i32 %0, 0
  br i1 %cmp, label %if.end, label %if.else

if.else:                                          ; preds = %entry
  tail call void @__assert_fail(ptr noundef nonnull @.str.7, ptr noundef nonnull @.str.1, i32 noundef 248, ptr noundef nonnull @__PRETTY_FUNCTION__.bdrv_disable_copy_on_read) #16
  unreachable

if.end:                                           ; preds = %entry
  ret void
}